Certificate:
    Data:
        Version: 3 (0x2)
        Serial Number:
            1b:68:d0:53:ed:8f:73:0f:0f:e2:c3:2e:44:47:d0:3f
        Signature Algorithm: sha256WithRSAEncryption
        Issuer: CN=Easy-RSA CA
        Validity
            Not Before: Mar 10 11:16:24 2021 GMT
            Not After : Feb 23 11:16:24 2024 GMT
        Subject: CN=*.compute-1.amazonaws.com
        Subject Public Key Info:
            Public Key Algorithm: rsaEncryption
                RSA Public-Key: (2048 bit)
                Modulus:
                    00:ee:d3:ea:40:8d:20:28:e7:d9:a7:88:9a:25:7e:
                    1a:5d:c8:9a:54:e0:35:e6:ff:b9:20:af:d7:ed:f0:
                    62:8f:be:c3:94:4d:0f:c6:80:d0:05:de:0c:02:fa:
                    a0:a8:83:cd:25:e6:80:09:ae:d7:72:a5:1e:4d:66:
                    22:d2:85:c4:a1:7e:18:c4:da:be:a0:e6:1e:25:32:
                    16:f9:3c:a6:9d:9b:ef:33:bb:82:52:f8:9c:42:44:
                    9e:5e:be:82:72:4f:cc:b6:be:cf:c3:1f:c2:e5:98:
                    be:37:de:94:0a:ea:cc:ff:d5:d8:6a:3c:42:2b:74:
                    ef:ad:12:fb:59:6a:fc:0b:59:db:16:cc:ca:13:aa:
                    04:94:cc:ae:56:c7:e4:30:a1:ed:b0:dd:11:b4:0c:
                    a6:cc:0c:12:ed:ce:24:9b:97:fa:6e:bf:7b:9a:2e:
                    bb:88:87:36:81:90:8d:58:88:fe:3d:56:d3:b3:3c:
                    91:3f:87:1d:86:e9:f6:8e:25:ae:06:1e:7d:2a:7c:
                    75:5e:1c:a5:d6:dd:eb:c1:12:a4:52:f2:d0:86:ef:
                    24:35:a9:ba:1e:f3:b3:ad:65:a3:fa:6a:48:40:1e:
                    94:c4:f9:7a:af:ed:b3:f4:1e:f4:b3:59:98:18:2a:
                    4d:91:82:e4:71:a6:04:ce:5f:e2:b8:38:19:b3:91:
                    be:6f
                Exponent: 65537 (0x10001)
        X509v3 extensions:
            X509v3 Basic Constraints: 
                CA:FALSE
            X509v3 Subject Key Identifier: 
                54:9E:8D:F7:A3:EC:92:4A:B7:19:EC:3A:31:9E:A8:F4:D2:DD:1D:C0
            X509v3 Authority Key Identifier: 
                keyid:A6:32:DF:AF:3A:A6:18:71:7F:C8:A2:37:99:A9:AD:16:9A:F6:E6:6F
                DirName:/CN=Easy-RSA CA
                serial:01:21:02:95:C3:7A:31:29:3F:E1:6B:4C:68:80:AB:83:D1:C5:E6:35

            X509v3 Extended Key Usage: 
                TLS Web Server Authentication
            X509v3 Key Usage: 
                Digital Signature, Key Encipherment
            X509v3 Subject Alternative Name: 
                DNS:*.compute-1.amazonaws.com
    Signature Algorithm: sha256WithRSAEncryption
         33:5f:68:0c:f0:67:f9:42:36:e2:f5:c0:07:fb:29:ed:b4:f8:
         8e:76:f3:d7:32:01:43:53:f6:22:da:93:37:56:ee:fc:cf:ac:
         41:bb:b7:e1:d4:59:29:d5:b9:39:95:19:d3:bf:cf:17:86:84:
         5d:99:17:35:fe:3e:76:07:f0:52:ed:cc:2e:b0:2d:84:73:cd:
         ce:ef:5e:68:ac:d1:d1:d4:d7:c4:f5:99:5c:ec:4b:4e:ca:8d:
         c4:84:95:89:41:8e:5d:10:85:5d:95:b1:d5:0a:6b:b0:c0:f0:
         9e:b6:23:2a:1f:8d:98:a0:ba:42:0f:9a:51:b9:4b:60:69:43:
         25:0c:54:17:63:81:6d:03:a6:73:73:5e:b9:f2:ff:ba:49:cc:
         9c:59:3e:36:62:47:1d:5c:66:07:da:09:fc:aa:fa:a4:0d:33:
         1b:50:84:0d:c7:f0:4f:01:ce:f7:40:32:7d:b4:a2:17:32:e2:
         90:ad:8f:dd:28:0d:f0:9f:c9:58:66:bd:bd:3c:7a:2a:79:56:
         18:f5:6b:e9:8a:39:45:24:49:a6:b3:f2:83:c0:c4:56:cf:0e:
         fc:b4:ff:49:0b:d6:e0:b5:1f:05:42:5b:54:c6:fb:22:59:83:
         62:3a:14:64:89:c1:cc:a3:bc:36:ef:20:05:de:79:21:21:95:
         83:3f:34:21
-----BEGIN CERTIFICATE-----
MIIDjTCCAnWgAwIBAgIQG2jQU+2Pcw8P4sMuREfQPzANBgkqhkiG9w0BAQsFADAW
MRQwEgYDVQQDDAtFYXN5LVJTQSBDQTAeFw0yMTAzMTAxMTE2MjRaFw0yNDAyMjMx
MTE2MjRaMCQxIjAgBgNVBAMMGSouY29tcHV0ZS0xLmFtYXpvbmF3cy5jb20wggEi
MA0GCSqGSIb3DQEBAQUAA4IBDwAwggEKAoIBAQDu0+pAjSAo59mniJolfhpdyJpU
4DXm/7kgr9ft8GKPvsOUTQ/GgNAF3gwC+qCog80l5oAJrtdypR5NZiLShcShfhjE
2r6g5h4lMhb5PKadm+8zu4JS+JxCRJ5evoJyT8y2vs/DH8LlmL433pQK6sz/1dhq
PEIrdO+tEvtZavwLWdsWzMoTqgSUzK5Wx+Qwoe2w3RG0DKbMDBLtziSbl/puv3ua
LruIhzaBkI1YiP49VtOzPJE/hx2G6faOJa4GHn0qfHVeHKXW3evBEqRS8tCG7yQ1
qboe87OtZaP6akhAHpTE+Xqv7bP0HvSzWZgYKk2RguRxpgTOX+K4OBmzkb5vAgMB
AAGjgcgwgcUwCQYDVR0TBAIwADAdBgNVHQ4EFgQUVJ6N96Pskkq3Gew6MZ6o9NLd
HcAwUQYDVR0jBEowSIAUpjLfrzqmGHF/yKI3mamtFpr25m+hGqQYMBYxFDASBgNV
BAMMC0Vhc3ktUlNBIENBghQBIQKVw3oxKT/ha0xogKuD0cXmNTATBgNVHSUEDDAK
BggrBgEFBQcDATALBgNVHQ8EBAMCBaAwJAYDVR0RBB0wG4IZKi5jb21wdXRlLTEu
YW1hem9uYXdzLmNvbTANBgkqhkiG9w0BAQsFAAOCAQEAM19oDPBn+UI24vXAB/sp
7bT4jnbz1zIBQ1P2ItqTN1bu/M+sQbu34dRZKdW5OZUZ07/PF4aEXZkXNf4+dgfw
Uu3MLrAthHPNzu9eaKzR0dTXxPWZXOxLTsqNxISViUGOXRCFXZWx1QprsMDwnrYj
Kh+NmKC6Qg+aUblLYGlDJQxUF2OBbQOmc3NeufL/uknMnFk+NmJHHVxmB9oJ/Kr6
pA0zG1CEDcfwTwHO90AyfbSiFzLikK2P3SgN8J/JWGa9vTx6KnlWGPVr6Yo5RSRJ
prPyg8DEVs8O/LT/SQvW4LUfBUJbVMb7IlmDYjoUZInBzKO8Nu8gBd55ISGVgz80
IQ==
-----END CERTIFICATE-----
